(dp0
S'b '
p1
I17
sS'w '
p2
I36
sS'y '
p3
I37
sS'ni '
p4
I5
sS'\n'
p5
I0
sS'd '
p6
I19
sS'f '
p7
I21
sS'drz '
p8
I12
sS'h '
p9
I23
sS'ki '
p10
I24
sS'j '
p11
I25
sS'<UNK>'
p12
I40
sS'dz '
p13
I13
sS'ci '
p14
I0
sS'm '
p15
I26
sS', '
p16
I8
sS'rz '
p17
I9
sS'.'
p18
I3
sS'q '
p19
I30
sS's '
p20
I11
sS'u '
p21
I34
sS'a '
p22
I14
sS'sz '
p23
I15
sS'c '
p24
I16
sS'z '
p25
I38
sS'e '
p26
I18
sS'k '
p27
I39
sS'g '
p28
I20
sS'i '
p29
I22
sS'cz '
p30
I2
sS'll '
p31
I7
sS'dzi '
p32
I31
sS'ng '
p33
I10
sS'l '
p34
I27
sS'n '
p35
I29
sS'p '
p36
I6
sS'si '
p37
I32
sS'r '
p38
I33
sS'zi '
p39
I1
sS'gi '
p40
I4
sS'o '
p41
I28
sS't '
p42
I35
s.