(dp0
S'<a>'
p1
I14
sS'<g>'
p2
I20
sS'\n'
p3
I0
sS'<e>'
p4
I18
sS'<ll>'
p5
I7
sS'<y>'
p6
I37
sS'<dzi>'
p7
I31
sS'<dz>'
p8
I13
sS'<ki>'
p9
I24
sS'<j>'
p10
I25
sS'<s>'
p11
I11
sS'<h>'
p12
I23
sS'<q>'
p13
I30
sS'<<UNK>>'
p14
I40
sS'<w>'
p15
I36
sS'<l>'
p16
I27
sS'<sz>'
p17
I15
sS'<u>'
p18
I34
sS'<b>'
p19
I17
sS'<ng>'
p20
I10
sS'<rz>'
p21
I9
sS'<zi>'
p22
I1
sS'<cz>'
p23
I2
sS'<gi>'
p24
I4
sS'<f>'
p25
I21
sS'<d>'
p26
I19
sS'<si>'
p27
I32
sS'<ni>'
p28
I5
sS'<z>'
p29
I38
sS'<drz>'
p30
I12
sS'<ci>'
p31
I0
sS'<k>'
p32
I39
sS'<n>'
p33
I29
sS'<i>'
p34
I22
sS'<o>'
p35
I28
sS'<r>'
p36
I33
sS'<p>'
p37
I6
sS'<.>'
p38
I3
sS'<,>'
p39
I8
sS'<m>'
p40
I26
sS'<c>'
p41
I16
sS'<t>'
p42
I35
s.